; Function Attrs: mustprogress uwtable
define dso_local void @_ZNK11cmCMakePath8AbsoluteERKNSt10filesystem7__cxx114pathE(ptr dead_on_unwind noalias writable sret(%class.cmCMakePath) align 8 %0, ptr noundef nonnull align 8 dereferenceable(40) %1, ptr noundef nonnull align 8 dereferenceable(40) %2) local_unnamed_addr #0 align 2 personality ptr @__gxx_personality_v0 {
  %4 = alloca %"class.std::allocator", align 1
  %5 = alloca %"class.std::filesystem::__cxx11::path", align 8
  %6 = alloca %"class.std::__cxx11::basic_string", align 8
  %7 = tail call noundef zeroext i1 @_ZNKSt10filesystem7__cxx114path18has_root_directoryEv(ptr noundef nonnull align 8 dereferenceable(40) %1) #10
  br i1 %7, label %25, label %8

8:                                                ; preds = %3
  call void @_ZNSt7__cxx1112basic_stringIcSt11char_traitsIcESaIcEEC1ERKS4_(ptr noundef nonnull align 8 dereferenceable(32) %5, ptr noundef nonnull align 8 dereferenceable(32) %2)
  %9 = getelementptr inbounds i8, ptr %5, i64 32
  %10 = getelementptr inbounds i8, ptr %2, i64 32
  invoke void @_ZNSt10filesystem7__cxx114path5_ListC1ERKS2_(ptr noundef nonnull align 8 dereferenceable(8) %9, ptr noundef nonnull align 8 dereferenceable(8) %10)
          to label %_ZNSt10filesystem7__cxx114pathC2ERKS1_.exit unwind label %11

common.resume:                                    ; preds = %28, %.body, %11
  %common.resume.op = phi { ptr, i32 } [ %12, %11 ], [ %.pn, %.body ], [ %29, %28 ]
  resume { ptr, i32 } %common.resume.op

11:                                               ; preds = %8
  %12 = landingpad { ptr, i32 }
          cleanup
  call void @_ZNSt7__cxx1112basic_stringIcSt11char_traitsIcESaIcEED1Ev(ptr noundef nonnull align 8 dereferenceable(32) %5) #10
  br label %common.resume

_ZNSt10filesystem7__cxx114pathC2ERKS1_.exit:      ; preds = %8
  %13 = invoke noundef nonnull align 8 dereferenceable(40) ptr @_ZNSt10filesystem7__cxx114pathdVERKS1_(ptr noundef nonnull align 8 dereferenceable(40) %5, ptr noundef nonnull align 8 dereferenceable(40) %1)
          to label %14 unwind label %21

14:                                               ; preds = %_ZNSt10filesystem7__cxx114pathC2ERKS1_.exit
  call void @llvm.lifetime.start.p0(i64 1, ptr nonnull %4)
  call void @_ZNSaIcEC1Ev(ptr noundef nonnull align 1 dereferenceable(1) %4) #10, !noalias !26
  invoke void @_ZNKSt10filesystem7__cxx114path14generic_stringIcSt11char_traitsIcESaIcEEENSt7__cxx1112basic_stringIT_T0_T1_EERKSA_(ptr dead_on_unwind nonnull writable sret(%"class.std::__cxx11::basic_string") align 8 %6, ptr noundef nonnull align 8 dereferenceable(40) %5, ptr noundef nonnull align 1 dereferenceable(1) %4)
          to label %17 unwind label %15

15:                                               ; preds = %14
  %16 = landingpad { ptr, i32 }
          cleanup
  call void @_ZNSaIcED1Ev(ptr noundef nonnull align 1 dereferenceable(1) %4) #10
  br label %.body

17:                                               ; preds = %14
  call void @_ZNSaIcED1Ev(ptr noundef nonnull align 1 dereferenceable(1) %4) #10
  call void @llvm.lifetime.end.p0(i64 1, ptr nonnull %4)
  invoke void @_ZN11cmCMakePathC2INSt7__cxx1112basic_stringIcSt11char_traitsIcESaIcEEERS_EET_NS_6formatE(ptr noundef nonnull align 8 dereferenceable(40) %0, ptr noundef nonnull %6, i8 noundef zeroext 1)
          to label %18 unwind label %23

18:                                               ; preds = %17
  call void @_ZNSt7__cxx1112basic_stringIcSt11char_traitsIcESaIcEED1Ev(ptr noundef nonnull align 8 dereferenceable(32) %6) #10
  %19 = load ptr, ptr %9, align 8
  %.not.i.i.i = icmp eq ptr %19, null
  br i1 %.not.i.i.i, label %_ZNSt10filesystem7__cxx114pathD2Ev.exit, label %20

20:                                               ; preds = %18
  call void @_ZNKSt10filesystem7__cxx114path5_List13_Impl_deleterclEPNS2_5_ImplE(ptr noundef nonnull align 1 dereferenceable(1) %9, ptr noundef nonnull %19) #10
  br label %_ZNSt10filesystem7__cxx114pathD2Ev.exit

_ZNSt10filesystem7__cxx114pathD2Ev.exit:          ; preds = %18, %20
  store ptr null, ptr %9, align 8
  call void @_ZNSt7__cxx1112basic_stringIcSt11char_traitsIcESaIcEED1Ev(ptr noundef nonnull align 8 dereferenceable(32) %5) #10
  br label %_ZN11cmCMakePathC2ERKS_.exit

21:                                               ; preds = %_ZNSt10filesystem7__cxx114pathC2ERKS1_.exit
  %22 = landingpad { ptr, i32 }
          cleanup
  br label %.body

23:                                               ; preds = %17
  %24 = landingpad { ptr, i32 }
          cleanup
  call void @_ZNSt7__cxx1112basic_stringIcSt11char_traitsIcESaIcEED1Ev(ptr noundef nonnull align 8 dereferenceable(32) %6) #10
  br label %.body

.body:                                            ; preds = %21, %15, %23
  %.pn = phi { ptr, i32 } [ %24, %23 ], [ %22, %21 ], [ %16, %15 ]
  call void @_ZNSt10filesystem7__cxx114pathD2Ev(ptr noundef nonnull align 8 dereferenceable(40) %5) #10
  br label %common.resume

25:                                               ; preds = %3
  tail call void @_ZNSt7__cxx1112basic_stringIcSt11char_traitsIcESaIcEEC1ERKS4_(ptr noundef nonnull align 8 dereferenceable(32) %0, ptr noundef nonnull align 8 dereferenceable(32) %1)
  %26 = getelementptr inbounds i8, ptr %0, i64 32
  %27 = getelementptr inbounds i8, ptr %1, i64 32
  invoke void @_ZNSt10filesystem7__cxx114path5_ListC1ERKS2_(ptr noundef nonnull align 8 dereferenceable(8) %26, ptr noundef nonnull align 8 dereferenceable(8) %27)
          to label %_ZN11cmCMakePathC2ERKS_.exit unwind label %28

28:                                               ; preds = %25
  %29 = landingpad { ptr, i32 }
          cleanup
  tail call void @_ZNSt7__cxx1112basic_stringIcSt11char_traitsIcESaIcEED1Ev(ptr noundef nonnull align 8 dereferenceable(32) %0) #10
  br label %common.resume

_ZN11cmCMakePathC2ERKS_.exit:                     ; preds = %25, %_ZNSt10filesystem7__cxx114pathD2Ev.exit
  ret void
}